target datalayout = "e-m:e-p270:32:32-p271:32:32-p272:64:64-i64:64-i128:128-f80:128-n8:16:32:64-S128"
target triple = "x86_64-pc-linux-gnu"

%"class.std::__cxx11::basic_string" = type { %"struct.std::__cxx11::basic_string<char>::_Alloc_hider", i64, %union.anon }
%"struct.std::__cxx11::basic_string<char>::_Alloc_hider" = type { ptr }
%union.anon = type { i64, [8 x i8] }
%"struct.std::_Vector_base.119" = type { %"struct.std::_Vector_base<TempDirSelector, std::allocator<TempDirSelector>>::_Vector_impl" }
%"struct.std::_Vector_base<TempDirSelector, std::allocator<TempDirSelector>>::_Vector_impl" = type { %"struct.std::_Vector_base<TempDirSelector, std::allocator<TempDirSelector>>::_Vector_impl_data" }
%"struct.std::_Vector_base<TempDirSelector, std::allocator<TempDirSelector>>::_Vector_impl_data" = type { ptr, ptr, ptr }
%struct.TempDirSelector = type { %"class.std::__cxx11::basic_string", %"class.std::__cxx11::basic_string" }

; Function Attrs: mustprogress nounwind uwtable
define linkonce_odr void @_ZNSt15__new_allocatorIcE10deallocateEPcm(ptr noundef nonnull align 1 dereferenceable(1) %0, ptr noundef %1, i64 noundef %2) #6 comdat align 2 {
  %4 = alloca ptr, align 8
  %5 = alloca ptr, align 8
  %6 = alloca i64, align 8
  store ptr %0, ptr %4, align 8, !tbaa !14
  store ptr %1, ptr %5, align 8, !tbaa !12
  store i64 %2, ptr %6, align 8, !tbaa !62
  %7 = load ptr, ptr %5, align 8, !tbaa !12
  %8 = load i64, ptr %6, align 8, !tbaa !62
  %9 = mul i64 %8, 1
  call void @_ZdlPvm(ptr noundef %7, i64 noundef %9) #27
  ret void
}

; Function Attrs: mustprogress nounwind uwtable
define linkonce_odr noundef ptr @_ZNSt19__ptr_traits_ptr_toIPKcS0_Lb0EE10pointer_toERS0_(ptr noundef nonnull align 1 dereferenceable(1) %0) #6 comdat align 2 {
  %2 = alloca ptr, align 8
  store ptr %0, ptr %2, align 8, !tbaa !12
  %3 = load ptr, ptr %2, align 8, !tbaa !12
  ret ptr %3
}

; Function Attrs: mustprogress uwtable
define linkonce_odr void @_ZNSt16allocator_traitsISaIcEE10deallocateERS0_Pcm(ptr noundef nonnull align 1 dereferenceable(1) %0, ptr noundef %1, i64 noundef %2) #4 comdat align 2 {
  %4 = alloca ptr, align 8
  %5 = alloca ptr, align 8
  %6 = alloca i64, align 8
  store ptr %0, ptr %4, align 8, !tbaa !7
  store ptr %1, ptr %5, align 8, !tbaa !12
  store i64 %2, ptr %6, align 8, !tbaa !62
  %7 = load ptr, ptr %4, align 8, !tbaa !7
  %8 = load ptr, ptr %5, align 8, !tbaa !12
  %9 = load i64, ptr %6, align 8, !tbaa !62
  call void @_ZNSt15__new_allocatorIcE10deallocateEPcm(ptr noundef nonnull align 1 dereferenceable(1) %7, ptr noundef %8, i64 noundef %9)
  ret void
}

; Function Attrs: mustprogress nounwind uwtable
define available_externally noundef nonnull align 1 dereferenceable(1) ptr @_ZNSt7__cxx1112basic_stringIcSt11char_traitsIcESaIcEE16_M_get_allocatorEv(ptr noundef nonnull align 8 dereferenceable(32) %0) #6 align 2 {
  %2 = alloca ptr, align 8
  store ptr %0, ptr %2, align 8, !tbaa !10
  %3 = load ptr, ptr %2, align 8
  %4 = getelementptr inbounds nuw %"class.std::__cxx11::basic_string", ptr %3, i32 0, i32 0
  ret ptr %4
}

; Function Attrs: mustprogress nounwind uwtable
define available_externally noundef ptr @_ZNKSt7__cxx1112basic_stringIcSt11char_traitsIcESaIcEE13_M_local_dataEv(ptr noundef nonnull align 8 dereferenceable(32) %0) #6 align 2 {
  %2 = alloca ptr, align 8
  store ptr %0, ptr %2, align 8, !tbaa !10
  %3 = load ptr, ptr %2, align 8
  %4 = getelementptr inbounds nuw %"class.std::__cxx11::basic_string", ptr %3, i32 0, i32 2
  %5 = getelementptr inbounds [16 x i8], ptr %4, i64 0, i64 0
  %6 = call noundef ptr @_ZNSt19__ptr_traits_ptr_toIPKcS0_Lb0EE10pointer_toERS0_(ptr noundef nonnull align 1 dereferenceable(1) %5) #3
  ret ptr %6
}

; Function Attrs: mustprogress nounwind uwtable
define available_externally noundef ptr @_ZNKSt7__cxx1112basic_stringIcSt11char_traitsIcESaIcEE7_M_dataEv(ptr noundef nonnull align 8 dereferenceable(32) %0) #6 align 2 {
  %2 = alloca ptr, align 8
  store ptr %0, ptr %2, align 8, !tbaa !10
  %3 = load ptr, ptr %2, align 8
  %4 = getelementptr inbounds nuw %"class.std::__cxx11::basic_string", ptr %3, i32 0, i32 0
  %5 = getelementptr inbounds nuw %"struct.std::__cxx11::basic_string<char>::_Alloc_hider", ptr %4, i32 0, i32 0
  %6 = load ptr, ptr %5, align 8, !tbaa !283
  ret ptr %6
}

; Function Attrs: mustprogress nounwind uwtable
define available_externally void @_ZNSt7__cxx1112basic_stringIcSt11char_traitsIcESaIcEE10_M_destroyEm(ptr noundef nonnull align 8 dereferenceable(32) %0, i64 noundef %1) #6 align 2 personality ptr @__gxx_personality_v0 {
  %3 = alloca ptr, align 8
  %4 = alloca i64, align 8
  store ptr %0, ptr %3, align 8, !tbaa !10
  store i64 %1, ptr %4, align 8, !tbaa !62
  %5 = load ptr, ptr %3, align 8
  %6 = invoke noundef nonnull align 1 dereferenceable(1) ptr @_ZNSt7__cxx1112basic_stringIcSt11char_traitsIcESaIcEE16_M_get_allocatorEv(ptr noundef nonnull align 8 dereferenceable(32) %5)
          to label %7 unwind label %12

7:                                                ; preds = %2
  %8 = call noundef ptr @_ZNKSt7__cxx1112basic_stringIcSt11char_traitsIcESaIcEE7_M_dataEv(ptr noundef nonnull align 8 dereferenceable(32) %5)
  %9 = load i64, ptr %4, align 8, !tbaa !62
  %10 = add i64 %9, 1
  invoke void @_ZNSt16allocator_traitsISaIcEE10deallocateERS0_Pcm(ptr noundef nonnull align 1 dereferenceable(1) %6, ptr noundef %8, i64 noundef %10)
          to label %11 unwind label %12

11:                                               ; preds = %7
  ret void

12:                                               ; preds = %7, %2
  %13 = landingpad { ptr, i32 }
          catch ptr null
  %14 = extractvalue { ptr, i32 } %13, 0
  call void @__clang_call_terminate(ptr %14) #25
  unreachable
}

; Function Attrs: mustprogress uwtable
define available_externally noundef zeroext i1 @_ZNKSt7__cxx1112basic_stringIcSt11char_traitsIcESaIcEE11_M_is_localEv(ptr noundef nonnull align 8 dereferenceable(32) %0) #4 align 2 {
  %2 = alloca i1, align 1
  %3 = alloca ptr, align 8
  store ptr %0, ptr %3, align 8, !tbaa !10
  %4 = load ptr, ptr %3, align 8
  %5 = call noundef ptr @_ZNKSt7__cxx1112basic_stringIcSt11char_traitsIcESaIcEE7_M_dataEv(ptr noundef nonnull align 8 dereferenceable(32) %4)
  %6 = call noundef ptr @_ZNKSt7__cxx1112basic_stringIcSt11char_traitsIcESaIcEE13_M_local_dataEv(ptr noundef nonnull align 8 dereferenceable(32) %4)
  %7 = icmp eq ptr %5, %6
  br i1 %7, label %8, label %14

8:                                                ; preds = %1
  %9 = getelementptr inbounds nuw %"class.std::__cxx11::basic_string", ptr %4, i32 0, i32 1
  %10 = load i64, ptr %9, align 8, !tbaa !282
  %11 = icmp ugt i64 %10, 15
  br i1 %11, label %12, label %13

12:                                               ; preds = %8
  unreachable

13:                                               ; preds = %8
  store i1 true, ptr %2, align 1
  br label %15

14:                                               ; preds = %1
  store i1 false, ptr %2, align 1
  br label %15

15:                                               ; preds = %14, %13
  %16 = load i1, ptr %2, align 1
  ret i1 %16
}

; Function Attrs: mustprogress nounwind uwtable
define linkonce_odr void @_ZNSt15__new_allocatorIcED2Ev(ptr noundef nonnull align 1 dereferenceable(1) %0) unnamed_addr #6 comdat align 2 {
  %2 = alloca ptr, align 8
  store ptr %0, ptr %2, align 8, !tbaa !14
  ret void
}

; Function Attrs: mustprogress uwtable
define available_externally void @_ZNSt7__cxx1112basic_stringIcSt11char_traitsIcESaIcEE10_M_disposeEv(ptr noundef nonnull align 8 dereferenceable(32) %0) #4 align 2 {
  %2 = alloca ptr, align 8
  store ptr %0, ptr %2, align 8, !tbaa !10
  %3 = load ptr, ptr %2, align 8
  %4 = call noundef zeroext i1 @_ZNKSt7__cxx1112basic_stringIcSt11char_traitsIcESaIcEE11_M_is_localEv(ptr noundef nonnull align 8 dereferenceable(32) %3)
  br i1 %4, label %8, label %5

5:                                                ; preds = %1
  %6 = getelementptr inbounds nuw %"class.std::__cxx11::basic_string", ptr %3, i32 0, i32 2
  %7 = load i64, ptr %6, align 8, !tbaa !61
  call void @_ZNSt7__cxx1112basic_stringIcSt11char_traitsIcESaIcEE10_M_destroyEm(ptr noundef nonnull align 8 dereferenceable(32) %3, i64 noundef %7) #3
  br label %8

8:                                                ; preds = %5, %1
  ret void
}

; Function Attrs: mustprogress nounwind uwtable
define available_externally void @_ZNSt7__cxx1112basic_stringIcSt11char_traitsIcESaIcEED2Ev(ptr noundef nonnull align 8 dereferenceable(32) %0) unnamed_addr #6 align 2 personality ptr @__gxx_personality_v0 {
  %2 = alloca ptr, align 8
  store ptr %0, ptr %2, align 8, !tbaa !10
  %3 = load ptr, ptr %2, align 8
  invoke void @_ZNSt7__cxx1112basic_stringIcSt11char_traitsIcESaIcEE10_M_disposeEv(ptr noundef nonnull align 8 dereferenceable(32) %3)
          to label %4 unwind label %6

4:                                                ; preds = %1
  %5 = getelementptr inbounds nuw %"class.std::__cxx11::basic_string", ptr %3, i32 0, i32 0
  call void @_ZNSt15__new_allocatorIcED2Ev(ptr noundef nonnull align 8 dereferenceable(8) %5) #3
  ret void

6:                                                ; preds = %1
  %7 = landingpad { ptr, i32 }
          catch ptr null
  %8 = extractvalue { ptr, i32 } %7, 0
  call void @__clang_call_terminate(ptr %8) #25
  unreachable
}

; Function Attrs: inlinehint mustprogress nounwind uwtable
define internal void @_ZZN5arrow8internal12_GLOBAL__N_124GetPlatformTemporaryDirsB5cxx11EvEN15TempDirSelectorD2Ev(ptr noundef nonnull align 8 dereferenceable(64) %0) unnamed_addr #8 align 2 {
  %2 = alloca ptr, align 8
  store ptr %0, ptr %2, align 8, !tbaa !203
  %3 = load ptr, ptr %2, align 8
  %4 = getelementptr inbounds nuw %struct.TempDirSelector, ptr %3, i32 0, i32 1
  call void @_ZNSt7__cxx1112basic_stringIcSt11char_traitsIcESaIcEED2Ev(ptr noundef nonnull align 8 dereferenceable(32) %4) #3
  %5 = getelementptr inbounds nuw %struct.TempDirSelector, ptr %3, i32 0, i32 0
  call void @_ZNSt7__cxx1112basic_stringIcSt11char_traitsIcESaIcEED2Ev(ptr noundef nonnull align 8 dereferenceable(32) %5) #3
  ret void
}

; Function Attrs: mustprogress nounwind uwtable
define internal void @_ZNSt15__new_allocatorIZN5arrow8internal12_GLOBAL__N_124GetPlatformTemporaryDirsB5cxx11EvE15TempDirSelectorE10deallocateEPS3_m(ptr noundef nonnull align 1 dereferenceable(1) %0, ptr noundef %1, i64 noundef %2) #6 align 2 {
  %4 = alloca ptr, align 8
  %5 = alloca ptr, align 8
  %6 = alloca i64, align 8
  store ptr %0, ptr %4, align 8, !tbaa !494
  store ptr %1, ptr %5, align 8, !tbaa !203
  store i64 %2, ptr %6, align 8, !tbaa !62
  %7 = load ptr, ptr %5, align 8, !tbaa !203
  %8 = load i64, ptr %6, align 8, !tbaa !62
  %9 = mul i64 %8, 64
  call void @_ZdlPvm(ptr noundef %7, i64 noundef %9) #27
  ret void
}

; Function Attrs: inlinehint mustprogress nounwind uwtable
define internal void @_ZSt8_DestroyIZN5arrow8internal12_GLOBAL__N_124GetPlatformTemporaryDirsB5cxx11EvE15TempDirSelectorEvPT_(ptr noundef %0) #8 {
  %2 = alloca ptr, align 8
  store ptr %0, ptr %2, align 8, !tbaa !203
  %3 = load ptr, ptr %2, align 8, !tbaa !203
  call void @_ZZN5arrow8internal12_GLOBAL__N_124GetPlatformTemporaryDirsB5cxx11EvEN15TempDirSelectorD2Ev(ptr noundef nonnull align 8 dereferenceable(64) %3) #3
  ret void
}

; Function Attrs: mustprogress uwtable
define internal void @_ZNSt16allocator_traitsISaIZN5arrow8internal12_GLOBAL__N_124GetPlatformTemporaryDirsB5cxx11EvE15TempDirSelectorEE10deallocateERS4_PS3_m(ptr noundef nonnull align 1 dereferenceable(1) %0, ptr noundef %1, i64 noundef %2) #4 align 2 {
  %4 = alloca ptr, align 8
  %5 = alloca ptr, align 8
  %6 = alloca i64, align 8
  store ptr %0, ptr %4, align 8, !tbaa !489
  store ptr %1, ptr %5, align 8, !tbaa !203
  store i64 %2, ptr %6, align 8, !tbaa !62
  %7 = load ptr, ptr %4, align 8, !tbaa !489
  %8 = load ptr, ptr %5, align 8, !tbaa !203
  %9 = load i64, ptr %6, align 8, !tbaa !62
  call void @_ZNSt15__new_allocatorIZN5arrow8internal12_GLOBAL__N_124GetPlatformTemporaryDirsB5cxx11EvE15TempDirSelectorE10deallocateEPS3_m(ptr noundef nonnull align 1 dereferenceable(1) %7, ptr noundef %8, i64 noundef %9)
  ret void
}

; Function Attrs: mustprogress uwtable
define internal void @_ZNSt12_Destroy_auxILb0EE9__destroyIPZN5arrow8internal12_GLOBAL__N_124GetPlatformTemporaryDirsB5cxx11EvE15TempDirSelectorEEvT_S7_(ptr noundef %0, ptr noundef %1) #4 align 2 {
  %3 = alloca ptr, align 8
  %4 = alloca ptr, align 8
  store ptr %0, ptr %3, align 8, !tbaa !203
  store ptr %1, ptr %4, align 8, !tbaa !203
  br label %5

5:                                                ; preds = %11, %2
  %6 = load ptr, ptr %3, align 8, !tbaa !203
  %7 = load ptr, ptr %4, align 8, !tbaa !203
  %8 = icmp ne ptr %6, %7
  br i1 %8, label %9, label %14

9:                                                ; preds = %5
  %10 = load ptr, ptr %3, align 8, !tbaa !203
  call void @_ZSt8_DestroyIZN5arrow8internal12_GLOBAL__N_124GetPlatformTemporaryDirsB5cxx11EvE15TempDirSelectorEvPT_(ptr noundef %10)
  br label %11

11:                                               ; preds = %9
  %12 = load ptr, ptr %3, align 8, !tbaa !203
  %13 = getelementptr inbounds nuw %struct.TempDirSelector, ptr %12, i32 1
  store ptr %13, ptr %3, align 8, !tbaa !203
  br label %5, !llvm.loop !500

14:                                               ; preds = %5
  ret void
}

; Function Attrs: mustprogress nounwind uwtable
define internal void @_ZNSt15__new_allocatorIZN5arrow8internal12_GLOBAL__N_124GetPlatformTemporaryDirsB5cxx11EvE15TempDirSelectorED2Ev(ptr noundef nonnull align 1 dereferenceable(1) %0) unnamed_addr #6 align 2 {
  %2 = alloca ptr, align 8
  store ptr %0, ptr %2, align 8, !tbaa !494
  ret void
}

; Function Attrs: mustprogress uwtable
define internal void @_ZNSt12_Vector_baseIZN5arrow8internal12_GLOBAL__N_124GetPlatformTemporaryDirsB5cxx11EvE15TempDirSelectorSaIS3_EE13_M_deallocateEPS3_m(ptr noundef nonnull align 8 dereferenceable(24) %0, ptr noundef %1, i64 noundef %2) #4 align 2 {
  %4 = alloca ptr, align 8
  %5 = alloca ptr, align 8
  %6 = alloca i64, align 8
  store ptr %0, ptr %4, align 8, !tbaa !485
  store ptr %1, ptr %5, align 8, !tbaa !203
  store i64 %2, ptr %6, align 8, !tbaa !62
  %7 = load ptr, ptr %4, align 8
  %8 = load ptr, ptr %5, align 8, !tbaa !203
  %9 = icmp ne ptr %8, null
  br i1 %9, label %10, label %14

10:                                               ; preds = %3
  %11 = getelementptr inbounds nuw %"struct.std::_Vector_base.119", ptr %7, i32 0, i32 0
  %12 = load ptr, ptr %5, align 8, !tbaa !203
  %13 = load i64, ptr %6, align 8, !tbaa !62
  call void @_ZNSt16allocator_traitsISaIZN5arrow8internal12_GLOBAL__N_124GetPlatformTemporaryDirsB5cxx11EvE15TempDirSelectorEE10deallocateERS4_PS3_m(ptr noundef nonnull align 1 dereferenceable(1) %11, ptr noundef %12, i64 noundef %13)
  br label %14

14:                                               ; preds = %10, %3
  ret void
}

; Function Attrs: inlinehint mustprogress uwtable
define internal void @_ZSt8_DestroyIPZN5arrow8internal12_GLOBAL__N_124GetPlatformTemporaryDirsB5cxx11EvE15TempDirSelectorEvT_S5_(ptr noundef %0, ptr noundef %1) #7 {
  %3 = alloca ptr, align 8
  %4 = alloca ptr, align 8
  store ptr %0, ptr %3, align 8, !tbaa !203
  store ptr %1, ptr %4, align 8, !tbaa !203
  %5 = load ptr, ptr %3, align 8, !tbaa !203
  %6 = load ptr, ptr %4, align 8, !tbaa !203
  call void @_ZNSt12_Destroy_auxILb0EE9__destroyIPZN5arrow8internal12_GLOBAL__N_124GetPlatformTemporaryDirsB5cxx11EvE15TempDirSelectorEEvT_S7_(ptr noundef %5, ptr noundef %6)
  ret void
}

; Function Attrs: noinline noreturn nounwind uwtable
define linkonce_odr hidden void @__clang_call_terminate(ptr noundef %0) #16 comdat {
  %2 = call ptr @__cxa_begin_catch(ptr %0) #3
  call void @_ZSt9terminatev() #25
  unreachable
}

; Function Attrs: mustprogress nounwind uwtable
define internal void @_ZNSt12_Vector_baseIZN5arrow8internal12_GLOBAL__N_124GetPlatformTemporaryDirsB5cxx11EvE15TempDirSelectorSaIS3_EED2Ev(ptr noundef nonnull align 8 dereferenceable(24) %0) unnamed_addr #6 align 2 personality ptr @__gxx_personality_v0 {
  %2 = alloca ptr, align 8
  store ptr %0, ptr %2, align 8, !tbaa !485
  %3 = load ptr, ptr %2, align 8
  %4 = getelementptr inbounds nuw %"struct.std::_Vector_base.119", ptr %3, i32 0, i32 0
  %5 = getelementptr inbounds nuw %"struct.std::_Vector_base<TempDirSelector, std::allocator<TempDirSelector>>::_Vector_impl_data", ptr %4, i32 0, i32 0
  %6 = load ptr, ptr %5, align 8, !tbaa !482
  %7 = getelementptr inbounds nuw %"struct.std::_Vector_base.119", ptr %3, i32 0, i32 0
  %8 = getelementptr inbounds nuw %"struct.std::_Vector_base<TempDirSelector, std::allocator<TempDirSelector>>::_Vector_impl_data", ptr %7, i32 0, i32 2
  %9 = load ptr, ptr %8, align 8, !tbaa !493
  %10 = getelementptr inbounds nuw %"struct.std::_Vector_base.119", ptr %3, i32 0, i32 0
  %11 = getelementptr inbounds nuw %"struct.std::_Vector_base<TempDirSelector, std::allocator<TempDirSelector>>::_Vector_impl_data", ptr %10, i32 0, i32 0
  %12 = load ptr, ptr %11, align 8, !tbaa !482
  %13 = ptrtoint ptr %9 to i64
  %14 = ptrtoint ptr %12 to i64
  %15 = sub i64 %13, %14
  %16 = sdiv exact i64 %15, 64
  invoke void @_ZNSt12_Vector_baseIZN5arrow8internal12_GLOBAL__N_124GetPlatformTemporaryDirsB5cxx11EvE15TempDirSelectorSaIS3_EE13_M_deallocateEPS3_m(ptr noundef nonnull align 8 dereferenceable(24) %3, ptr noundef %6, i64 noundef %16)
          to label %17 unwind label %19

17:                                               ; preds = %1
  %18 = getelementptr inbounds nuw %"struct.std::_Vector_base.119", ptr %3, i32 0, i32 0
  call void @_ZNSt15__new_allocatorIZN5arrow8internal12_GLOBAL__N_124GetPlatformTemporaryDirsB5cxx11EvE15TempDirSelectorED2Ev(ptr noundef nonnull align 8 dereferenceable(24) %18) #3
  ret void

19:                                               ; preds = %1
  %20 = landingpad { ptr, i32 }
          catch ptr null
  %21 = extractvalue { ptr, i32 } %20, 0
  call void @__clang_call_terminate(ptr %21) #25
  unreachable
}

; Function Attrs: inlinehint mustprogress uwtable
define internal void @_ZSt8_DestroyIPZN5arrow8internal12_GLOBAL__N_124GetPlatformTemporaryDirsB5cxx11EvE15TempDirSelectorS3_EvT_S5_RSaIT0_E(ptr noundef %0, ptr noundef %1, ptr noundef nonnull align 1 dereferenceable(1) %2) #7 {
  %4 = alloca ptr, align 8
  %5 = alloca ptr, align 8
  %6 = alloca ptr, align 8
  store ptr %0, ptr %4, align 8, !tbaa !203
  store ptr %1, ptr %5, align 8, !tbaa !203
  store ptr %2, ptr %6, align 8, !tbaa !489
  %7 = load ptr, ptr %4, align 8, !tbaa !203
  %8 = load ptr, ptr %5, align 8, !tbaa !203
  call void @_ZSt8_DestroyIPZN5arrow8internal12_GLOBAL__N_124GetPlatformTemporaryDirsB5cxx11EvE15TempDirSelectorEvT_S5_(ptr noundef %7, ptr noundef %8)
  ret void
}

; Function Attrs: mustprogress nounwind uwtable
define internal noundef nonnull align 1 dereferenceable(1) ptr @_ZNSt12_Vector_baseIZN5arrow8internal12_GLOBAL__N_124GetPlatformTemporaryDirsB5cxx11EvE15TempDirSelectorSaIS3_EE19_M_get_Tp_allocatorEv(ptr noundef nonnull align 8 dereferenceable(24) %0) #6 align 2 {
  %2 = alloca ptr, align 8
  store ptr %0, ptr %2, align 8, !tbaa !485
  %3 = load ptr, ptr %2, align 8
  %4 = getelementptr inbounds nuw %"struct.std::_Vector_base.119", ptr %3, i32 0, i32 0
  ret ptr %4
}

; Function Attrs: mustprogress nounwind uwtable
define internal void @_ZNSt6vectorIZN5arrow8internal12_GLOBAL__N_124GetPlatformTemporaryDirsB5cxx11EvE15TempDirSelectorSaIS3_EED2Ev(ptr noundef nonnull align 8 dereferenceable(24) %0) unnamed_addr #6 align 2 personality ptr @__gxx_personality_v0 {
  %2 = alloca ptr, align 8
  store ptr %0, ptr %2, align 8, !tbaa !201
  %3 = load ptr, ptr %2, align 8
  %4 = getelementptr inbounds nuw %"struct.std::_Vector_base.119", ptr %3, i32 0, i32 0
  %5 = getelementptr inbounds nuw %"struct.std::_Vector_base<TempDirSelector, std::allocator<TempDirSelector>>::_Vector_impl_data", ptr %4, i32 0, i32 0
  %6 = load ptr, ptr %5, align 8, !tbaa !482
  %7 = getelementptr inbounds nuw %"struct.std::_Vector_base.119", ptr %3, i32 0, i32 0
  %8 = getelementptr inbounds nuw %"struct.std::_Vector_base<TempDirSelector, std::allocator<TempDirSelector>>::_Vector_impl_data", ptr %7, i32 0, i32 1
  %9 = load ptr, ptr %8, align 8, !tbaa !484
  %10 = call noundef nonnull align 1 dereferenceable(1) ptr @_ZNSt12_Vector_baseIZN5arrow8internal12_GLOBAL__N_124GetPlatformTemporaryDirsB5cxx11EvE15TempDirSelectorSaIS3_EE19_M_get_Tp_allocatorEv(ptr noundef nonnull align 8 dereferenceable(24) %3) #3
  invoke void @_ZSt8_DestroyIPZN5arrow8internal12_GLOBAL__N_124GetPlatformTemporaryDirsB5cxx11EvE15TempDirSelectorS3_EvT_S5_RSaIT0_E(ptr noundef %6, ptr noundef %9, ptr noundef nonnull align 1 dereferenceable(1) %10)
          to label %11 unwind label %12

11:                                               ; preds = %1
  call void @_ZNSt12_Vector_baseIZN5arrow8internal12_GLOBAL__N_124GetPlatformTemporaryDirsB5cxx11EvE15TempDirSelectorSaIS3_EED2Ev(ptr noundef nonnull align 8 dereferenceable(24) %3) #3
  ret void

12:                                               ; preds = %1
  %13 = landingpad { ptr, i32 }
          catch ptr null
  %14 = extractvalue { ptr, i32 } %13, 0
  call void @__clang_call_terminate(ptr %14) #25
  unreachable
}