; Function Attrs: mustprogress nounwind uwtable
define internal fastcc void @_ZNSt6vectorIZN5arrow8internal12_GLOBAL__N_124GetPlatformTemporaryDirsB5cxx11EvE15TempDirSelectorSaIS3_EED2Ev(ptr noundef nonnull readonly align 8 captures(none) dereferenceable(24) %0) unnamed_addr #5 align 2 personality ptr @__gxx_personality_v0 {
  %2 = load ptr, ptr %0, align 8, !tbaa !541
  %3 = getelementptr inbounds nuw i8, ptr %0, i64 8
  %4 = load ptr, ptr %3, align 8, !tbaa !544
  %.not4.i.i.i = icmp eq ptr %2, %4
  br i1 %.not4.i.i.i, label %_ZSt8_DestroyIPZN5arrow8internal12_GLOBAL__N_124GetPlatformTemporaryDirsB5cxx11EvE15TempDirSelectorS3_EvT_S5_RSaIT0_E.exit, label %.lr.ph.i.i.i

.lr.ph.i.i.i:                                     ; preds = %1, %_ZSt8_DestroyIZN5arrow8internal12_GLOBAL__N_124GetPlatformTemporaryDirsB5cxx11EvE15TempDirSelectorEvPT_.exit.i.i.i
  %.05.i.i.i = phi ptr [ %22, %_ZSt8_DestroyIZN5arrow8internal12_GLOBAL__N_124GetPlatformTemporaryDirsB5cxx11EvE15TempDirSelectorEvPT_.exit.i.i.i ], [ %2, %1 ]
  %5 = getelementptr inbounds nuw i8, ptr %.05.i.i.i, i64 32
  %6 = load ptr, ptr %5, align 8, !tbaa !11
  %7 = getelementptr inbounds nuw i8, ptr %.05.i.i.i, i64 48
  %8 = icmp eq ptr %6, %7
  br i1 %8, label %_ZNKSt7__cxx1112basic_stringIcSt11char_traitsIcESaIcEE11_M_is_localEv.exit.thread.i.i.i.i.i.i.i, label %_ZNKSt7__cxx1112basic_stringIcSt11char_traitsIcESaIcEE11_M_is_localEv.exit.i.i.i.i.i.i.i

_ZNKSt7__cxx1112basic_stringIcSt11char_traitsIcESaIcEE11_M_is_localEv.exit.thread.i.i.i.i.i.i.i: ; preds = %.lr.ph.i.i.i
  %9 = getelementptr inbounds nuw i8, ptr %.05.i.i.i, i64 40
  %10 = load i64, ptr %9, align 8, !tbaa !14
  %11 = icmp ult i64 %10, 16
  tail call void @llvm.assume(i1 %11)
  br label %_ZNSt7__cxx1112basic_stringIcSt11char_traitsIcESaIcEED2Ev.exit.i.i.i.i.i

_ZNKSt7__cxx1112basic_stringIcSt11char_traitsIcESaIcEE11_M_is_localEv.exit.i.i.i.i.i.i.i: ; preds = %.lr.ph.i.i.i
  %12 = load i64, ptr %7, align 8, !tbaa !13
  %13 = add i64 %12, 1
  tail call void @_ZdlPvm(ptr noundef %6, i64 noundef %13) #41
  br label %_ZNSt7__cxx1112basic_stringIcSt11char_traitsIcESaIcEED2Ev.exit.i.i.i.i.i

_ZNSt7__cxx1112basic_stringIcSt11char_traitsIcESaIcEED2Ev.exit.i.i.i.i.i: ; preds = %_ZNKSt7__cxx1112basic_stringIcSt11char_traitsIcESaIcEE11_M_is_localEv.exit.i.i.i.i.i.i.i, %_ZNKSt7__cxx1112basic_stringIcSt11char_traitsIcESaIcEE11_M_is_localEv.exit.thread.i.i.i.i.i.i.i
  %14 = load ptr, ptr %.05.i.i.i, align 8, !tbaa !11
  %15 = getelementptr inbounds nuw i8, ptr %.05.i.i.i, i64 16
  %16 = icmp eq ptr %14, %15
  br i1 %16, label %_ZNKSt7__cxx1112basic_stringIcSt11char_traitsIcESaIcEE11_M_is_localEv.exit.thread.i.i2.i.i.i.i.i, label %_ZNKSt7__cxx1112basic_stringIcSt11char_traitsIcESaIcEE11_M_is_localEv.exit.i.i1.i.i.i.i.i

_ZNKSt7__cxx1112basic_stringIcSt11char_traitsIcESaIcEE11_M_is_localEv.exit.thread.i.i2.i.i.i.i.i: ; preds = %_ZNSt7__cxx1112basic_stringIcSt11char_traitsIcESaIcEED2Ev.exit.i.i.i.i.i
  %17 = getelementptr inbounds nuw i8, ptr %.05.i.i.i, i64 8
  %18 = load i64, ptr %17, align 8, !tbaa !14
  %19 = icmp ult i64 %18, 16
  tail call void @llvm.assume(i1 %19)
  br label %_ZSt8_DestroyIZN5arrow8internal12_GLOBAL__N_124GetPlatformTemporaryDirsB5cxx11EvE15TempDirSelectorEvPT_.exit.i.i.i

_ZNKSt7__cxx1112basic_stringIcSt11char_traitsIcESaIcEE11_M_is_localEv.exit.i.i1.i.i.i.i.i: ; preds = %_ZNSt7__cxx1112basic_stringIcSt11char_traitsIcESaIcEED2Ev.exit.i.i.i.i.i
  %20 = load i64, ptr %15, align 8, !tbaa !13
  %21 = add i64 %20, 1
  tail call void @_ZdlPvm(ptr noundef %14, i64 noundef %21) #41
  br label %_ZSt8_DestroyIZN5arrow8internal12_GLOBAL__N_124GetPlatformTemporaryDirsB5cxx11EvE15TempDirSelectorEvPT_.exit.i.i.i

_ZSt8_DestroyIZN5arrow8internal12_GLOBAL__N_124GetPlatformTemporaryDirsB5cxx11EvE15TempDirSelectorEvPT_.exit.i.i.i: ; preds = %_ZNKSt7__cxx1112basic_stringIcSt11char_traitsIcESaIcEE11_M_is_localEv.exit.i.i1.i.i.i.i.i, %_ZNKSt7__cxx1112basic_stringIcSt11char_traitsIcESaIcEE11_M_is_localEv.exit.thread.i.i2.i.i.i.i.i
  %22 = getelementptr inbounds nuw i8, ptr %.05.i.i.i, i64 64
  %.not.i.i.i = icmp eq ptr %22, %4
  br i1 %.not.i.i.i, label %_ZSt8_DestroyIPZN5arrow8internal12_GLOBAL__N_124GetPlatformTemporaryDirsB5cxx11EvE15TempDirSelectorS3_EvT_S5_RSaIT0_E.exitthread-pre-split, label %.lr.ph.i.i.i, !llvm.loop !574

_ZSt8_DestroyIPZN5arrow8internal12_GLOBAL__N_124GetPlatformTemporaryDirsB5cxx11EvE15TempDirSelectorS3_EvT_S5_RSaIT0_E.exitthread-pre-split: ; preds = %_ZSt8_DestroyIZN5arrow8internal12_GLOBAL__N_124GetPlatformTemporaryDirsB5cxx11EvE15TempDirSelectorEvPT_.exit.i.i.i
  %.val.pr = load ptr, ptr %0, align 8, !tbaa !541
  br label %_ZSt8_DestroyIPZN5arrow8internal12_GLOBAL__N_124GetPlatformTemporaryDirsB5cxx11EvE15TempDirSelectorS3_EvT_S5_RSaIT0_E.exit

_ZSt8_DestroyIPZN5arrow8internal12_GLOBAL__N_124GetPlatformTemporaryDirsB5cxx11EvE15TempDirSelectorS3_EvT_S5_RSaIT0_E.exit: ; preds = %_ZSt8_DestroyIPZN5arrow8internal12_GLOBAL__N_124GetPlatformTemporaryDirsB5cxx11EvE15TempDirSelectorS3_EvT_S5_RSaIT0_E.exitthread-pre-split, %1
  %.val = phi ptr [ %.val.pr, %_ZSt8_DestroyIPZN5arrow8internal12_GLOBAL__N_124GetPlatformTemporaryDirsB5cxx11EvE15TempDirSelectorS3_EvT_S5_RSaIT0_E.exitthread-pre-split ], [ %2, %1 ]
  %.not.i.i = icmp eq ptr %.val, null
  br i1 %.not.i.i, label %_ZNSt12_Vector_baseIZN5arrow8internal12_GLOBAL__N_124GetPlatformTemporaryDirsB5cxx11EvE15TempDirSelectorSaIS3_EED2Ev.exit, label %23

23:                                               ; preds = %_ZSt8_DestroyIPZN5arrow8internal12_GLOBAL__N_124GetPlatformTemporaryDirsB5cxx11EvE15TempDirSelectorS3_EvT_S5_RSaIT0_E.exit
  %24 = getelementptr inbounds nuw i8, ptr %0, i64 16
  %.val1 = load ptr, ptr %24, align 8, !tbaa !545
  %25 = ptrtoint ptr %.val1 to i64
  %26 = ptrtoint ptr %.val to i64
  %27 = sub i64 %25, %26
  tail call void @_ZdlPvm(ptr noundef nonnull %.val, i64 noundef %27) #41
  br label %_ZNSt12_Vector_baseIZN5arrow8internal12_GLOBAL__N_124GetPlatformTemporaryDirsB5cxx11EvE15TempDirSelectorSaIS3_EED2Ev.exit

_ZNSt12_Vector_baseIZN5arrow8internal12_GLOBAL__N_124GetPlatformTemporaryDirsB5cxx11EvE15TempDirSelectorSaIS3_EED2Ev.exit: ; preds = %_ZSt8_DestroyIPZN5arrow8internal12_GLOBAL__N_124GetPlatformTemporaryDirsB5cxx11EvE15TempDirSelectorS3_EvT_S5_RSaIT0_E.exit, %23
  ret void
}